target datalayout = "e-m:e-p270:32:32-p271:32:32-p272:64:64-i64:64-i128:128-f80:128-n8:16:32:64-S128"
target triple = "x86_64-pc-linux-gnu"

%struct.reassembly_table = type { ptr, ptr, ptr, ptr, ptr }
%struct.reassembly_table_functions = type { ptr, ptr, ptr, ptr, ptr, ptr }

@.str.154 = private unnamed_addr constant [69 x i8] c"iWARP Direct Data Placement and Remote Direct Memory Access Protocol\00", align 1
@.str.155 = private unnamed_addr constant [16 x i8] c"IWARP_DDP_RDMAP\00", align 1
@.str.156 = private unnamed_addr constant [16 x i8] c"iwarp_ddp_rdmap\00", align 1
@proto_iwarp_ddp_rdmap = internal global i32 0, align 4
@.str.157 = private unnamed_addr constant [20 x i8] c"iWARP RDMAP payload\00", align 1
@rdmap_heur_subdissector_list = internal global ptr null, align 8
@.str.158 = private unnamed_addr constant [27 x i8] c"reassemble_iwarp_rdma_send\00", align 1
@.str.159 = private unnamed_addr constant [37 x i8] c"Reassemble iWarp RDMA Send fragments\00", align 1
@.str.160 = private unnamed_addr constant [76 x i8] c"Whether the iWarp RDMA dissector should reassemble Send fragmented payloads\00", align 1
@iwarp_rdma_send_reassemble = internal global i8 1, align 1
@iwarp_rdma_send_reassembly_table = internal global %struct.reassembly_table zeroinitializer, align 8
@addresses_ports_reassembly_table_functions = external constant %struct.reassembly_table_functions, align 8

; Function Attrs: null_pointer_is_valid sspstrong uwtable
define hidden void @proto_register_iwarp_ddp_rdmap() #0 {
  %1 = alloca ptr, align 8
  call void @llvm.lifetime.start.p0(i64 8, ptr %1) #5
  %2 = call i32 @proto_register_protocol(ptr noundef @.str.154, ptr noundef @.str.155, ptr noundef @.str.156)
  store i32 %2, ptr @proto_iwarp_ddp_rdmap, align 4
  %3 = load i32, ptr @proto_iwarp_ddp_rdmap, align 4
  call void @proto_register_field_array(i32 noundef %3, ptr noundef @proto_register_iwarp_ddp_rdmap.hf, i32 noundef 71)
  call void @proto_register_subtree_array(ptr noundef @proto_register_iwarp_ddp_rdmap.ett, i32 noundef 13)
  %4 = load i32, ptr @proto_iwarp_ddp_rdmap, align 4
  %5 = call ptr @register_heur_dissector_list_with_description(ptr noundef @.str.156, ptr noundef @.str.157, i32 noundef %4)
  store ptr %5, ptr @rdmap_heur_subdissector_list, align 8
  %6 = load i32, ptr @proto_iwarp_ddp_rdmap, align 4
  %7 = call ptr @register_dissector(ptr noundef @.str.156, ptr noundef @dissect_iwarp_ddp_rdmap, i32 noundef %6)
  %8 = load i32, ptr @proto_iwarp_ddp_rdmap, align 4
  %9 = call ptr @prefs_register_protocol(i32 noundef %8, ptr noundef null)
  store ptr %9, ptr %1, align 8
  %10 = load ptr, ptr %1, align 8
  call void @prefs_register_bool_preference(ptr noundef %10, ptr noundef @.str.158, ptr noundef @.str.159, ptr noundef @.str.160, ptr noundef @iwarp_rdma_send_reassemble)
  call void @reassembly_table_register(ptr noundef @iwarp_rdma_send_reassembly_table, ptr noundef @addresses_ports_reassembly_table_functions)
  call void @llvm.lifetime.end.p0(i64 8, ptr %1) #5
  ret void
}