; Function Attrs: null_pointer_is_valid sspstrong uwtable
define hidden void @proto_register_iwarp_ddp_rdmap() local_unnamed_addr #0 {
  %1 = tail call i32 @proto_register_protocol(ptr noundef nonnull @.str.154, ptr noundef nonnull @.str.155, ptr noundef nonnull @.str.156)
  store i32 %1, ptr @proto_iwarp_ddp_rdmap, align 4
  tail call void @proto_register_field_array(i32 noundef %1, ptr noundef nonnull @proto_register_iwarp_ddp_rdmap.hf, i32 noundef 71)
  tail call void @proto_register_subtree_array(ptr noundef nonnull @proto_register_iwarp_ddp_rdmap.ett, i32 noundef 13)
  %2 = load i32, ptr @proto_iwarp_ddp_rdmap, align 4
  %3 = tail call ptr @register_heur_dissector_list_with_description(ptr noundef nonnull @.str.156, ptr noundef nonnull @.str.157, i32 noundef %2)
  store ptr %3, ptr @rdmap_heur_subdissector_list, align 8
  %4 = load i32, ptr @proto_iwarp_ddp_rdmap, align 4
  %5 = tail call ptr @register_dissector(ptr noundef nonnull @.str.156, ptr noundef nonnull @dissect_iwarp_ddp_rdmap, i32 noundef %4)
  %6 = load i32, ptr @proto_iwarp_ddp_rdmap, align 4
  %7 = tail call ptr @prefs_register_protocol(i32 noundef %6, ptr noundef null)
  tail call void @prefs_register_bool_preference(ptr noundef %7, ptr noundef nonnull @.str.158, ptr noundef nonnull @.str.159, ptr noundef nonnull @.str.160, ptr noundef nonnull @iwarp_rdma_send_reassemble)
  tail call void @reassembly_table_register(ptr noundef nonnull @iwarp_rdma_send_reassembly_table, ptr noundef nonnull @addresses_ports_reassembly_table_functions)
  ret void
}